
led blinking_me_2.elf:     file format elf32-avr

Sections:
Idx Name          Size      VMA       LMA       File off  Algn
  0 .text         00000684  00000000  00000000  00000054  2**1
                  CONTENTS, ALLOC, LOAD, READONLY, CODE
  1 .comment      00000030  00000000  00000000  000006d8  2**0
                  CONTENTS, READONLY
  2 .debug_aranges 00000020  00000000  00000000  00000708  2**0
                  CONTENTS, READONLY, DEBUGGING
  3 .debug_info   000008ff  00000000  00000000  00000728  2**0
                  CONTENTS, READONLY, DEBUGGING
  4 .debug_abbrev 000000ea  00000000  00000000  00001027  2**0
                  CONTENTS, READONLY, DEBUGGING
  5 .debug_line   000004a8  00000000  00000000  00001111  2**0
                  CONTENTS, READONLY, DEBUGGING
  6 .debug_frame  00000034  00000000  00000000  000015bc  2**2
                  CONTENTS, READONLY, DEBUGGING
  7 .debug_str    00000183  00000000  00000000  000015f0  2**0
                  CONTENTS, READONLY, DEBUGGING
  8 .debug_loc    00001d42  00000000  00000000  00001773  2**0
                  CONTENTS, READONLY, DEBUGGING
  9 .debug_ranges 00000010  00000000  00000000  000034b5  2**0
                  CONTENTS, READONLY, DEBUGGING

Disassembly of section .text:

00000000 <__vectors>:
   0:	0c 94 2a 00 	jmp	0x54	; 0x54 <__ctors_end>
   4:	0c 94 34 00 	jmp	0x68	; 0x68 <__bad_interrupt>
   8:	0c 94 34 00 	jmp	0x68	; 0x68 <__bad_interrupt>
   c:	0c 94 34 00 	jmp	0x68	; 0x68 <__bad_interrupt>
  10:	0c 94 34 00 	jmp	0x68	; 0x68 <__bad_interrupt>
  14:	0c 94 34 00 	jmp	0x68	; 0x68 <__bad_interrupt>
  18:	0c 94 34 00 	jmp	0x68	; 0x68 <__bad_interrupt>
  1c:	0c 94 34 00 	jmp	0x68	; 0x68 <__bad_interrupt>
  20:	0c 94 34 00 	jmp	0x68	; 0x68 <__bad_interrupt>
  24:	0c 94 34 00 	jmp	0x68	; 0x68 <__bad_interrupt>
  28:	0c 94 34 00 	jmp	0x68	; 0x68 <__bad_interrupt>
  2c:	0c 94 34 00 	jmp	0x68	; 0x68 <__bad_interrupt>
  30:	0c 94 34 00 	jmp	0x68	; 0x68 <__bad_interrupt>
  34:	0c 94 34 00 	jmp	0x68	; 0x68 <__bad_interrupt>
  38:	0c 94 34 00 	jmp	0x68	; 0x68 <__bad_interrupt>
  3c:	0c 94 34 00 	jmp	0x68	; 0x68 <__bad_interrupt>
  40:	0c 94 34 00 	jmp	0x68	; 0x68 <__bad_interrupt>
  44:	0c 94 34 00 	jmp	0x68	; 0x68 <__bad_interrupt>
  48:	0c 94 34 00 	jmp	0x68	; 0x68 <__bad_interrupt>
  4c:	0c 94 34 00 	jmp	0x68	; 0x68 <__bad_interrupt>
  50:	0c 94 34 00 	jmp	0x68	; 0x68 <__bad_interrupt>

00000054 <__ctors_end>:
  54:	11 24       	eor	r1, r1
  56:	1f be       	out	0x3f, r1	; 63
  58:	cf e5       	ldi	r28, 0x5F	; 95
  5a:	d8 e0       	ldi	r29, 0x08	; 8
  5c:	de bf       	out	0x3e, r29	; 62
  5e:	cd bf       	out	0x3d, r28	; 61
  60:	0e 94 36 00 	call	0x6c	; 0x6c <main>
  64:	0c 94 40 03 	jmp	0x680	; 0x680 <_exit>

00000068 <__bad_interrupt>:
  68:	0c 94 00 00 	jmp	0	; 0x0 <__vectors>

0000006c <main>:
#define F_CPU 1000000UL
#include <util/delay.h>


int main(void)
{
  6c:	cf 93       	push	r28
  6e:	df 93       	push	r29
  70:	00 d0       	rcall	.+0      	; 0x72 <main+0x6>
  72:	00 d0       	rcall	.+0      	; 0x74 <main+0x8>
  74:	cd b7       	in	r28, 0x3d	; 61
  76:	de b7       	in	r29, 0x3e	; 62
	MCUCSR |= 1<<JTD;
  78:	84 b7       	in	r24, 0x34	; 52
  7a:	80 68       	ori	r24, 0x80	; 128
  7c:	84 bf       	out	0x34, r24	; 52
	MCUCSR |= 1<<JTD;
  7e:	84 b7       	in	r24, 0x34	; 52
  80:	80 68       	ori	r24, 0x80	; 128
  82:	84 bf       	out	0x34, r24	; 52
	
	DDRC=0b11111111;
  84:	8f ef       	ldi	r24, 0xFF	; 255
  86:	84 bb       	out	0x14, r24	; 20
	int i,j,k;
	
	MCUCSR |= 1<<JTD;
  88:	84 b7       	in	r24, 0x34	; 52
  8a:	80 68       	ori	r24, 0x80	; 128
  8c:	84 bf       	out	0x34, r24	; 52



	while(1)
	{
		for(i=1;i<=3;i++)
  8e:	81 e0       	ldi	r24, 0x01	; 1
  90:	90 e0       	ldi	r25, 0x00	; 0
  92:	0f 2e       	mov	r0, r31
  94:	f5 e0       	ldi	r31, 0x05	; 5
  96:	8f 2e       	mov	r8, r31
  98:	f0 2d       	mov	r31, r0
  9a:	51 2c       	mov	r5, r1
  9c:	68 94       	set
  9e:	ff 24       	eor	r15, r15
  a0:	f3 f8       	bld	r15, 3
  a2:	00 e0       	ldi	r16, 0x00	; 0
  a4:	66 24       	eor	r6, r6
  a6:	63 94       	inc	r6
  a8:	71 2c       	mov	r7, r1
  aa:	e0 e0       	ldi	r30, 0x00	; 0
  ac:	10 e8       	ldi	r17, 0x80	; 128
  ae:	fe 2f       	mov	r31, r30
			}
		}

		//goining up

		for(j=1; j<=5; j++)
  b0:	0f 2e       	mov	r0, r31
  b2:	f6 e0       	ldi	r31, 0x06	; 6
  b4:	bf 2e       	mov	r11, r31
  b6:	f0 2d       	mov	r31, r0
  b8:	a1 2c       	mov	r10, r1


		}

		//special_1_following
		for(j=1;j<=5;j++)
  ba:	68 94       	set
  bc:	ee 24       	eor	r14, r14
  be:	e4 f8       	bld	r14, 4
  c0:	d1 2c       	mov	r13, r1
  c2:	68 94       	set
  c4:	cc 24       	eor	r12, r12
  c6:	c3 f8       	bld	r12, 3
		
		
		
		
		
		for(j=1; j<=5; j++)
  c8:	68 94       	set
  ca:	44 24       	eor	r4, r4
  cc:	41 f8       	bld	r4, 1
  ce:	31 2c       	mov	r3, r1
				
			}
			
			PORTC=0;
			_delay_ms(200);
			PORTC=255;
  d0:	99 24       	eor	r9, r9
  d2:	9a 94       	dec	r9
		PORTC=0b00000000;
		_delay_ms(25);
	}
}
		
		for(j=1; j<=5; j++)
  d4:	4a 82       	std	Y+2, r4	; 0x02
  d6:	39 82       	std	Y+1, r3	; 0x01
  d8:	3b 82       	std	Y+3, r3	; 0x03
  da:	19 c0       	rjmp	.+50     	; 0x10e <main+0xa2>

	while(1)
	{
		for(i=1;i<=3;i++)
		{
			PORTC = 0b11111111;
  dc:	95 ba       	out	0x15, r9	; 21
	#else
		//round up by default
		__ticks_dc = (uint32_t)(ceil(fabs(__tmp)));
	#endif

	__builtin_avr_delay_cycles(__ticks_dc);
  de:	2f e9       	ldi	r18, 0x9F	; 159
  e0:	36 e8       	ldi	r19, 0x86	; 134
  e2:	41 e0       	ldi	r20, 0x01	; 1
  e4:	21 50       	subi	r18, 0x01	; 1
  e6:	30 40       	sbci	r19, 0x00	; 0
  e8:	40 40       	sbci	r20, 0x00	; 0
  ea:	e1 f7       	brne	.-8      	; 0xe4 <main+0x78>
  ec:	00 c0       	rjmp	.+0      	; 0xee <main+0x82>
  ee:	00 00       	nop
			_delay_ms(500);
			PORTC= 0b000000;
  f0:	15 ba       	out	0x15, r1	; 21
  f2:	af e9       	ldi	r26, 0x9F	; 159
  f4:	b6 e8       	ldi	r27, 0x86	; 134
  f6:	21 e0       	ldi	r18, 0x01	; 1
  f8:	a1 50       	subi	r26, 0x01	; 1
  fa:	b0 40       	sbci	r27, 0x00	; 0
  fc:	20 40       	sbci	r18, 0x00	; 0
  fe:	e1 f7       	brne	.-8      	; 0xf8 <main+0x8c>
 100:	00 c0       	rjmp	.+0      	; 0x102 <main+0x96>
 102:	00 00       	nop



	while(1)
	{
		for(i=1;i<=3;i++)
 104:	01 96       	adiw	r24, 0x01	; 1
 106:	03 c0       	rjmp	.+6      	; 0x10e <main+0xa2>
 108:	fb 2f       	mov	r31, r27
 10a:	81 e0       	ldi	r24, 0x01	; 1
 10c:	90 e0       	ldi	r25, 0x00	; 0
 10e:	84 30       	cpi	r24, 0x04	; 4
 110:	91 05       	cpc	r25, r1
 112:	24 f3       	brlt	.-56     	; 0xdc <main+0x70>
 114:	48 2d       	mov	r20, r8
 116:	55 2d       	mov	r21, r5
 118:	16 c0       	rjmp	.+44     	; 0x146 <main+0xda>

		for(j=1; j<=5; j++)
		{
			for( i=1; i<=128; i=2*i)
			{
				PORTC=i;
 11a:	85 bb       	out	0x15, r24	; 21
 11c:	ab e7       	ldi	r26, 0x7B	; 123
 11e:	b2 e9       	ldi	r27, 0x92	; 146
 120:	11 97       	sbiw	r26, 0x01	; 1
 122:	f1 f7       	brne	.-4      	; 0x120 <main+0xb4>
 124:	00 c0       	rjmp	.+0      	; 0x126 <main+0xba>
 126:	00 00       	nop

		//goining down

		for(j=1; j<=5; j++)
		{
			for( i=1; i<=128; i=2*i)
 128:	88 0f       	add	r24, r24
 12a:	99 1f       	adc	r25, r25
 12c:	21 50       	subi	r18, 0x01	; 1
 12e:	31 09       	sbc	r19, r1
 130:	21 15       	cp	r18, r1
 132:	31 05       	cpc	r19, r1
 134:	91 f7       	brne	.-28     	; 0x11a <main+0xae>
 136:	41 50       	subi	r20, 0x01	; 1
 138:	51 09       	sbc	r21, r1
			_delay_ms(500);
		}

		//goining down

		for(j=1; j<=5; j++)
 13a:	41 15       	cp	r20, r1
 13c:	51 05       	cpc	r21, r1
 13e:	19 f4       	brne	.+6      	; 0x146 <main+0xda>
 140:	48 2d       	mov	r20, r8
 142:	55 2d       	mov	r21, r5
 144:	22 c0       	rjmp	.+68     	; 0x18a <main+0x11e>



	while(1)
	{
		for(i=1;i<=3;i++)
 146:	2f 2d       	mov	r18, r15
 148:	30 2f       	mov	r19, r16
 14a:	86 2d       	mov	r24, r6
 14c:	97 2d       	mov	r25, r7
 14e:	e5 cf       	rjmp	.-54     	; 0x11a <main+0xae>

		for(j=1; j<=5; j++)
		{
			for( i=128; i>=1; i=i/2)
			{
				PORTC=i;
 150:	65 bb       	out	0x15, r22	; 21
 152:	8b e7       	ldi	r24, 0x7B	; 123
 154:	92 e9       	ldi	r25, 0x92	; 146
 156:	01 97       	sbiw	r24, 0x01	; 1
 158:	f1 f7       	brne	.-4      	; 0x156 <main+0xea>
 15a:	00 c0       	rjmp	.+0      	; 0x15c <main+0xf0>
 15c:	00 00       	nop

		//goining up

		for(j=1; j<=5; j++)
		{
			for( i=128; i>=1; i=i/2)
 15e:	86 2f       	mov	r24, r22
 160:	97 2f       	mov	r25, r23
 162:	99 23       	and	r25, r25
 164:	0c f4       	brge	.+2      	; 0x168 <main+0xfc>
 166:	01 96       	adiw	r24, 0x01	; 1
 168:	95 95       	asr	r25
 16a:	87 95       	ror	r24
 16c:	68 2f       	mov	r22, r24
 16e:	79 2f       	mov	r23, r25
 170:	21 50       	subi	r18, 0x01	; 1
 172:	31 09       	sbc	r19, r1
 174:	21 15       	cp	r18, r1
 176:	31 05       	cpc	r19, r1
 178:	59 f7       	brne	.-42     	; 0x150 <main+0xe4>
 17a:	41 50       	subi	r20, 0x01	; 1
 17c:	51 09       	sbc	r21, r1
			}
		}

		//goining up

		for(j=1; j<=5; j++)
 17e:	41 15       	cp	r20, r1
 180:	51 05       	cpc	r21, r1
 182:	19 f4       	brne	.+6      	; 0x18a <main+0x11e>
 184:	28 2d       	mov	r18, r8
 186:	35 2d       	mov	r19, r5
 188:	34 c0       	rjmp	.+104    	; 0x1f2 <main+0x186>



	while(1)
	{
		for(i=1;i<=3;i++)
 18a:	2f 2d       	mov	r18, r15
 18c:	30 2f       	mov	r19, r16
 18e:	61 2f       	mov	r22, r17
 190:	7f 2f       	mov	r23, r31
 192:	de cf       	rjmp	.-68     	; 0x150 <main+0xe4>

		for(j=1; j<=5; j++)
		{
			for( i=1; i<=128; i=2*i)
			{
				PORTC=i;
 194:	85 bb       	out	0x15, r24	; 21
 196:	ab e7       	ldi	r26, 0x7B	; 123
 198:	b2 e9       	ldi	r27, 0x92	; 146
 19a:	11 97       	sbiw	r26, 0x01	; 1
 19c:	f1 f7       	brne	.-4      	; 0x19a <main+0x12e>
 19e:	00 c0       	rjmp	.+0      	; 0x1a0 <main+0x134>
 1a0:	00 00       	nop

		//goining up+down

		for(j=1; j<=5; j++)
		{
			for( i=1; i<=128; i=2*i)
 1a2:	88 0f       	add	r24, r24
 1a4:	99 1f       	adc	r25, r25
 1a6:	41 50       	subi	r20, 0x01	; 1
 1a8:	51 09       	sbc	r21, r1
 1aa:	41 15       	cp	r20, r1
 1ac:	51 05       	cpc	r21, r1
 1ae:	91 f7       	brne	.-28     	; 0x194 <main+0x128>
 1b0:	4f 2d       	mov	r20, r15
 1b2:	50 2f       	mov	r21, r16
 1b4:	61 2f       	mov	r22, r17
 1b6:	7f 2f       	mov	r23, r31
				_delay_ms(150);
			}

			for( i=128; i>=1; i=i/2)
			{
				PORTC=i;
 1b8:	65 bb       	out	0x15, r22	; 21
 1ba:	8b e7       	ldi	r24, 0x7B	; 123
 1bc:	92 e9       	ldi	r25, 0x92	; 146
 1be:	01 97       	sbiw	r24, 0x01	; 1
 1c0:	f1 f7       	brne	.-4      	; 0x1be <main+0x152>
 1c2:	00 c0       	rjmp	.+0      	; 0x1c4 <main+0x158>
 1c4:	00 00       	nop
				PORTC=i;

				_delay_ms(150);
			}

			for( i=128; i>=1; i=i/2)
 1c6:	86 2f       	mov	r24, r22
 1c8:	97 2f       	mov	r25, r23
 1ca:	99 23       	and	r25, r25
 1cc:	0c f4       	brge	.+2      	; 0x1d0 <main+0x164>
 1ce:	01 96       	adiw	r24, 0x01	; 1
 1d0:	95 95       	asr	r25
 1d2:	87 95       	ror	r24
 1d4:	68 2f       	mov	r22, r24
 1d6:	79 2f       	mov	r23, r25
 1d8:	41 50       	subi	r20, 0x01	; 1
 1da:	51 09       	sbc	r21, r1
 1dc:	41 15       	cp	r20, r1
 1de:	51 05       	cpc	r21, r1
 1e0:	59 f7       	brne	.-42     	; 0x1b8 <main+0x14c>
 1e2:	21 50       	subi	r18, 0x01	; 1
 1e4:	31 09       	sbc	r19, r1
		}


		//goining up+down

		for(j=1; j<=5; j++)
 1e6:	21 15       	cp	r18, r1
 1e8:	31 05       	cpc	r19, r1
 1ea:	19 f4       	brne	.+6      	; 0x1f2 <main+0x186>
 1ec:	68 2d       	mov	r22, r8
 1ee:	75 2d       	mov	r23, r5
 1f0:	2b c0       	rjmp	.+86     	; 0x248 <main+0x1dc>
			_delay_ms(500);
		}

		//goining down

		for(j=1; j<=5; j++)
 1f2:	4f 2d       	mov	r20, r15
 1f4:	50 2f       	mov	r21, r16
 1f6:	86 2d       	mov	r24, r6
 1f8:	97 2d       	mov	r25, r7
 1fa:	cc cf       	rjmp	.-104    	; 0x194 <main+0x128>
		//special_1_following
		for(j=1;j<=5;j++)
		{
			for(i=1,k=4; i<=32; i=i*2,k=k*2)
			{
				PORTC |= i;
 1fc:	f5 b3       	in	r31, 0x15	; 21
 1fe:	f8 2b       	or	r31, r24
 200:	f5 bb       	out	0x15, r31	; 21
				PORTC |= k;
 202:	f5 b3       	in	r31, 0x15	; 21
 204:	f2 2b       	or	r31, r18
 206:	f5 bb       	out	0x15, r31	; 21
 208:	ab e7       	ldi	r26, 0x7B	; 123
 20a:	b2 e9       	ldi	r27, 0x92	; 146
 20c:	11 97       	sbiw	r26, 0x01	; 1
 20e:	f1 f7       	brne	.-4      	; 0x20c <main+0x1a0>
 210:	00 c0       	rjmp	.+0      	; 0x212 <main+0x1a6>
 212:	00 00       	nop
				
				_delay_ms(150);
				
				PORTC=0b00000000;
 214:	15 ba       	out	0x15, r1	; 21
 216:	a3 ed       	ldi	r26, 0xD3	; 211
 218:	b0 e3       	ldi	r27, 0x30	; 48
 21a:	11 97       	sbiw	r26, 0x01	; 1
 21c:	f1 f7       	brne	.-4      	; 0x21a <main+0x1ae>
 21e:	00 c0       	rjmp	.+0      	; 0x220 <main+0x1b4>
 220:	00 00       	nop
		}

		//special_1_following
		for(j=1;j<=5;j++)
		{
			for(i=1,k=4; i<=32; i=i*2,k=k*2)
 222:	88 0f       	add	r24, r24
 224:	99 1f       	adc	r25, r25
 226:	22 0f       	add	r18, r18
 228:	33 1f       	adc	r19, r19
 22a:	41 50       	subi	r20, 0x01	; 1
 22c:	51 09       	sbc	r21, r1
 22e:	41 15       	cp	r20, r1
 230:	51 05       	cpc	r21, r1
 232:	21 f7       	brne	.-56     	; 0x1fc <main+0x190>
 234:	f3 2d       	mov	r31, r3
 236:	61 50       	subi	r22, 0x01	; 1
 238:	71 09       	sbc	r23, r1


		}

		//special_1_following
		for(j=1;j<=5;j++)
 23a:	61 15       	cp	r22, r1
 23c:	71 05       	cpc	r23, r1
 23e:	21 f4       	brne	.+8      	; 0x248 <main+0x1dc>
 240:	48 2d       	mov	r20, r8
 242:	55 2d       	mov	r21, r5
 244:	83 2d       	mov	r24, r3
 246:	3b c0       	rjmp	.+118    	; 0x2be <main+0x252>
			}
		}

		//goining up

		for(j=1; j<=5; j++)
 248:	4b 2d       	mov	r20, r11
 24a:	5a 2d       	mov	r21, r10
 24c:	24 e0       	ldi	r18, 0x04	; 4
 24e:	30 e0       	ldi	r19, 0x00	; 0
 250:	86 2d       	mov	r24, r6
 252:	97 2d       	mov	r25, r7
 254:	3f 2e       	mov	r3, r31
 256:	d2 cf       	rjmp	.-92     	; 0x1fc <main+0x190>
		
		for(j=1;j<=5;j++)
		{
			for(i=128,k=32; i>=4; i=i/2,k=k/2)
			{
				PORTC |= i;
 258:	85 b3       	in	r24, 0x15	; 21
 25a:	86 2b       	or	r24, r22
 25c:	85 bb       	out	0x15, r24	; 21
				PORTC |= k;
 25e:	85 b3       	in	r24, 0x15	; 21
 260:	87 2b       	or	r24, r23
 262:	85 bb       	out	0x15, r24	; 21
 264:	8b e7       	ldi	r24, 0x7B	; 123
 266:	92 e9       	ldi	r25, 0x92	; 146
 268:	01 97       	sbiw	r24, 0x01	; 1
 26a:	f1 f7       	brne	.-4      	; 0x268 <main+0x1fc>
 26c:	00 c0       	rjmp	.+0      	; 0x26e <main+0x202>
 26e:	00 00       	nop
				
				_delay_ms(150);
				
				PORTC=0b00000000;
 270:	e5 bb       	out	0x15, r30	; 21
 272:	83 ed       	ldi	r24, 0xD3	; 211
 274:	90 e3       	ldi	r25, 0x30	; 48
 276:	01 97       	sbiw	r24, 0x01	; 1
 278:	f1 f7       	brne	.-4      	; 0x276 <main+0x20a>
 27a:	00 c0       	rjmp	.+0      	; 0x27c <main+0x210>
 27c:	00 00       	nop
		
		
		
		for(j=1;j<=5;j++)
		{
			for(i=128,k=32; i>=4; i=i/2,k=k/2)
 27e:	86 2f       	mov	r24, r22
 280:	9f 2f       	mov	r25, r31
 282:	99 23       	and	r25, r25
 284:	0c f4       	brge	.+2      	; 0x288 <main+0x21c>
 286:	01 96       	adiw	r24, 0x01	; 1
 288:	95 95       	asr	r25
 28a:	87 95       	ror	r24
 28c:	68 2f       	mov	r22, r24
 28e:	f9 2f       	mov	r31, r25
 290:	87 2f       	mov	r24, r23
 292:	9a 2f       	mov	r25, r26
 294:	99 23       	and	r25, r25
 296:	0c f4       	brge	.+2      	; 0x29a <main+0x22e>
 298:	01 96       	adiw	r24, 0x01	; 1
 29a:	95 95       	asr	r25
 29c:	87 95       	ror	r24
 29e:	78 2f       	mov	r23, r24
 2a0:	a9 2f       	mov	r26, r25
 2a2:	21 50       	subi	r18, 0x01	; 1
 2a4:	31 09       	sbc	r19, r1
 2a6:	21 15       	cp	r18, r1
 2a8:	31 05       	cpc	r19, r1
 2aa:	b1 f6       	brne	.-84     	; 0x258 <main+0x1ec>
 2ac:	8b 2f       	mov	r24, r27
 2ae:	41 50       	subi	r20, 0x01	; 1
 2b0:	51 09       	sbc	r21, r1
			}
		}
		
		
		
		for(j=1;j<=5;j++)
 2b2:	41 15       	cp	r20, r1
 2b4:	51 05       	cpc	r21, r1
 2b6:	19 f4       	brne	.+6      	; 0x2be <main+0x252>
 2b8:	68 2d       	mov	r22, r8
 2ba:	75 2d       	mov	r23, r5
 2bc:	34 c0       	rjmp	.+104    	; 0x326 <main+0x2ba>
		}


		//goining up+down

		for(j=1; j<=5; j++)
 2be:	2b 2d       	mov	r18, r11
 2c0:	3a 2d       	mov	r19, r10
 2c2:	70 e2       	ldi	r23, 0x20	; 32
 2c4:	a8 2f       	mov	r26, r24
 2c6:	61 2f       	mov	r22, r17
 2c8:	f8 2f       	mov	r31, r24
 2ca:	b8 2f       	mov	r27, r24
 2cc:	c5 cf       	rjmp	.-118    	; 0x258 <main+0x1ec>
		//special_2_going far and coming back
for(j=1; j<=5; j++)
{
	for(k=16 , i=8; i>=1; i=i/2,k=k*2)
	{
		PORTC |=i;
 2ce:	85 b3       	in	r24, 0x15	; 21
 2d0:	8f 2b       	or	r24, r31
 2d2:	85 bb       	out	0x15, r24	; 21
		PORTC |=k;
 2d4:	85 b3       	in	r24, 0x15	; 21
 2d6:	82 2b       	or	r24, r18
 2d8:	85 bb       	out	0x15, r24	; 21
 2da:	8f e4       	ldi	r24, 0x4F	; 79
 2dc:	93 ec       	ldi	r25, 0xC3	; 195
 2de:	01 97       	sbiw	r24, 0x01	; 1
 2e0:	f1 f7       	brne	.-4      	; 0x2de <main+0x272>
 2e2:	00 c0       	rjmp	.+0      	; 0x2e4 <main+0x278>
 2e4:	00 00       	nop
		_delay_ms(200);

		PORTC=0b00000000;
 2e6:	e5 bb       	out	0x15, r30	; 21
 2e8:	89 e6       	ldi	r24, 0x69	; 105
 2ea:	98 e1       	ldi	r25, 0x18	; 24
 2ec:	01 97       	sbiw	r24, 0x01	; 1
 2ee:	f1 f7       	brne	.-4      	; 0x2ec <main+0x280>
 2f0:	00 c0       	rjmp	.+0      	; 0x2f2 <main+0x286>
 2f2:	00 00       	nop
		
		
		//special_2_going far and coming back
for(j=1; j<=5; j++)
{
	for(k=16 , i=8; i>=1; i=i/2,k=k*2)
 2f4:	8f 2f       	mov	r24, r31
 2f6:	9a 2f       	mov	r25, r26
 2f8:	99 23       	and	r25, r25
 2fa:	0c f4       	brge	.+2      	; 0x2fe <main+0x292>
 2fc:	01 96       	adiw	r24, 0x01	; 1
 2fe:	95 95       	asr	r25
 300:	87 95       	ror	r24
 302:	f8 2f       	mov	r31, r24
 304:	a9 2f       	mov	r26, r25
 306:	22 0f       	add	r18, r18
 308:	33 1f       	adc	r19, r19
 30a:	41 50       	subi	r20, 0x01	; 1
 30c:	51 09       	sbc	r21, r1
 30e:	41 15       	cp	r20, r1
 310:	51 05       	cpc	r21, r1
 312:	e9 f6       	brne	.-70     	; 0x2ce <main+0x262>
 314:	8b 2f       	mov	r24, r27
 316:	61 50       	subi	r22, 0x01	; 1
 318:	71 09       	sbc	r23, r1
		
		
		
		
		//special_2_going far and coming back
for(j=1; j<=5; j++)
 31a:	61 15       	cp	r22, r1
 31c:	71 05       	cpc	r23, r1
 31e:	19 f4       	brne	.+6      	; 0x326 <main+0x2ba>
 320:	68 2d       	mov	r22, r8
 322:	75 2d       	mov	r23, r5
 324:	2e c0       	rjmp	.+92     	; 0x382 <main+0x316>


		}

		//special_1_following
		for(j=1;j<=5;j++)
 326:	44 e0       	ldi	r20, 0x04	; 4
 328:	50 e0       	ldi	r21, 0x00	; 0
 32a:	2e 2d       	mov	r18, r14
 32c:	3d 2d       	mov	r19, r13
 32e:	fc 2d       	mov	r31, r12
 330:	a8 2f       	mov	r26, r24
 332:	b8 2f       	mov	r27, r24
 334:	cc cf       	rjmp	.-104    	; 0x2ce <main+0x262>
		for(j=1; j<=5; j++)
		{
			
			for(k=128 , i=1; i<=8; i=i*2,k=k/2)
			{
				PORTC |=i;
 336:	85 b3       	in	r24, 0x15	; 21
 338:	82 2b       	or	r24, r18
 33a:	85 bb       	out	0x15, r24	; 21
				PORTC |=k;
 33c:	85 b3       	in	r24, 0x15	; 21
 33e:	8f 2b       	or	r24, r31
 340:	85 bb       	out	0x15, r24	; 21
 342:	8f e4       	ldi	r24, 0x4F	; 79
 344:	93 ec       	ldi	r25, 0xC3	; 195
 346:	01 97       	sbiw	r24, 0x01	; 1
 348:	f1 f7       	brne	.-4      	; 0x346 <main+0x2da>
 34a:	00 c0       	rjmp	.+0      	; 0x34c <main+0x2e0>
 34c:	00 00       	nop
				_delay_ms(200);

				PORTC=0b00000000;
 34e:	e5 bb       	out	0x15, r30	; 21
}
		
		for(j=1; j<=5; j++)
		{
			
			for(k=128 , i=1; i<=8; i=i*2,k=k/2)
 350:	22 0f       	add	r18, r18
 352:	33 1f       	adc	r19, r19
 354:	8f 2f       	mov	r24, r31
 356:	9a 2f       	mov	r25, r26
 358:	99 23       	and	r25, r25
 35a:	0c f4       	brge	.+2      	; 0x35e <main+0x2f2>
 35c:	01 96       	adiw	r24, 0x01	; 1
 35e:	95 95       	asr	r25
 360:	87 95       	ror	r24
 362:	f8 2f       	mov	r31, r24
 364:	a9 2f       	mov	r26, r25
 366:	41 50       	subi	r20, 0x01	; 1
 368:	51 09       	sbc	r21, r1
 36a:	41 15       	cp	r20, r1
 36c:	51 05       	cpc	r21, r1
 36e:	19 f7       	brne	.-58     	; 0x336 <main+0x2ca>
 370:	8b 2f       	mov	r24, r27
 372:	61 50       	subi	r22, 0x01	; 1
 374:	71 09       	sbc	r23, r1
		PORTC=0b00000000;
		_delay_ms(25);
	}
}
		
		for(j=1; j<=5; j++)
 376:	61 15       	cp	r22, r1
 378:	71 05       	cpc	r23, r1
 37a:	19 f4       	brne	.+6      	; 0x382 <main+0x316>
 37c:	48 2d       	mov	r20, r8
 37e:	55 2d       	mov	r21, r5
 380:	5a c0       	rjmp	.+180    	; 0x436 <main+0x3ca>
			}
		}
		
		
		
		for(j=1;j<=5;j++)
 382:	44 e0       	ldi	r20, 0x04	; 4
 384:	50 e0       	ldi	r21, 0x00	; 0
 386:	f1 2f       	mov	r31, r17
 388:	a8 2f       	mov	r26, r24
 38a:	26 2d       	mov	r18, r6
 38c:	37 2d       	mov	r19, r7
 38e:	b8 2f       	mov	r27, r24
 390:	d2 cf       	rjmp	.-92     	; 0x336 <main+0x2ca>
		
		for(j=1; j<=5; j++)
		{
			for(k=16 , i=8; i>=1; i=i/2,k=k*2)
			{
				PORTC |=i;
 392:	85 b3       	in	r24, 0x15	; 21
 394:	8f 2b       	or	r24, r31
 396:	85 bb       	out	0x15, r24	; 21
				PORTC |=k;
 398:	85 b3       	in	r24, 0x15	; 21
 39a:	82 2b       	or	r24, r18
 39c:	85 bb       	out	0x15, r24	; 21
 39e:	8f e4       	ldi	r24, 0x4F	; 79
 3a0:	93 ec       	ldi	r25, 0xC3	; 195
 3a2:	01 97       	sbiw	r24, 0x01	; 1
 3a4:	f1 f7       	brne	.-4      	; 0x3a2 <main+0x336>
 3a6:	00 c0       	rjmp	.+0      	; 0x3a8 <main+0x33c>
 3a8:	00 00       	nop
				_delay_ms(200);

				PORTC=0b00000000;
 3aa:	e5 bb       	out	0x15, r30	; 21
 3ac:	89 e6       	ldi	r24, 0x69	; 105
 3ae:	98 e1       	ldi	r25, 0x18	; 24
 3b0:	01 97       	sbiw	r24, 0x01	; 1
 3b2:	f1 f7       	brne	.-4      	; 0x3b0 <main+0x344>
 3b4:	00 c0       	rjmp	.+0      	; 0x3b6 <main+0x34a>
 3b6:	00 00       	nop
		
		
		
		for(j=1; j<=5; j++)
		{
			for(k=16 , i=8; i>=1; i=i/2,k=k*2)
 3b8:	8f 2f       	mov	r24, r31
 3ba:	9a 2f       	mov	r25, r26
 3bc:	99 23       	and	r25, r25
 3be:	0c f4       	brge	.+2      	; 0x3c2 <main+0x356>
 3c0:	01 96       	adiw	r24, 0x01	; 1
 3c2:	95 95       	asr	r25
 3c4:	87 95       	ror	r24
 3c6:	f8 2f       	mov	r31, r24
 3c8:	a9 2f       	mov	r26, r25
 3ca:	22 0f       	add	r18, r18
 3cc:	33 1f       	adc	r19, r19
 3ce:	61 50       	subi	r22, 0x01	; 1
 3d0:	71 09       	sbc	r23, r1
 3d2:	61 15       	cp	r22, r1
 3d4:	71 05       	cpc	r23, r1
 3d6:	e9 f6       	brne	.-70     	; 0x392 <main+0x326>
 3d8:	64 e0       	ldi	r22, 0x04	; 4
 3da:	70 e0       	ldi	r23, 0x00	; 0
 3dc:	f1 2f       	mov	r31, r17
 3de:	ab 2f       	mov	r26, r27
 3e0:	26 2d       	mov	r18, r6
 3e2:	37 2d       	mov	r19, r7
				_delay_ms(25);
			}

			for(k=128 , i=1; i<=8; i=i*2,k=k/2)
			{
				PORTC |=i;
 3e4:	85 b3       	in	r24, 0x15	; 21
 3e6:	82 2b       	or	r24, r18
 3e8:	85 bb       	out	0x15, r24	; 21
				
				PORTC |=k;
 3ea:	85 b3       	in	r24, 0x15	; 21
 3ec:	8f 2b       	or	r24, r31
 3ee:	85 bb       	out	0x15, r24	; 21
 3f0:	8f e4       	ldi	r24, 0x4F	; 79
 3f2:	93 ec       	ldi	r25, 0xC3	; 195
 3f4:	01 97       	sbiw	r24, 0x01	; 1
 3f6:	f1 f7       	brne	.-4      	; 0x3f4 <main+0x388>
 3f8:	00 c0       	rjmp	.+0      	; 0x3fa <main+0x38e>
 3fa:	00 00       	nop
				_delay_ms(200);

				PORTC=0b00000000;
 3fc:	e5 bb       	out	0x15, r30	; 21

				PORTC=0b00000000;
				_delay_ms(25);
			}

			for(k=128 , i=1; i<=8; i=i*2,k=k/2)
 3fe:	22 0f       	add	r18, r18
 400:	33 1f       	adc	r19, r19
 402:	8f 2f       	mov	r24, r31
 404:	9a 2f       	mov	r25, r26
 406:	99 23       	and	r25, r25
 408:	0c f4       	brge	.+2      	; 0x40c <main+0x3a0>
 40a:	01 96       	adiw	r24, 0x01	; 1
 40c:	95 95       	asr	r25
 40e:	87 95       	ror	r24
 410:	f8 2f       	mov	r31, r24
 412:	a9 2f       	mov	r26, r25
 414:	61 50       	subi	r22, 0x01	; 1
 416:	71 09       	sbc	r23, r1
 418:	61 15       	cp	r22, r1
 41a:	71 05       	cpc	r23, r1
 41c:	19 f7       	brne	.-58     	; 0x3e4 <main+0x378>
 41e:	8b 2f       	mov	r24, r27
 420:	41 50       	subi	r20, 0x01	; 1
 422:	51 09       	sbc	r21, r1
		
		
		
		
		
		for(j=1; j<=5; j++)
 424:	41 15       	cp	r20, r1
 426:	51 05       	cpc	r21, r1
 428:	31 f4       	brne	.+12     	; 0x436 <main+0x3ca>
 42a:	64 2d       	mov	r22, r4
 42c:	79 81       	ldd	r23, Y+1	; 0x01
 42e:	ab 2f       	mov	r26, r27
 430:	fa 81       	ldd	r31, Y+2	; 0x02
 432:	3b 80       	ldd	r3, Y+3	; 0x03
 434:	43 c0       	rjmp	.+134    	; 0x4bc <main+0x450>
		
		
		
		
		//special_2_going far and coming back
for(j=1; j<=5; j++)
 436:	64 e0       	ldi	r22, 0x04	; 4
 438:	70 e0       	ldi	r23, 0x00	; 0
 43a:	2e 2d       	mov	r18, r14
 43c:	3d 2d       	mov	r19, r13
 43e:	fc 2d       	mov	r31, r12
 440:	a8 2f       	mov	r26, r24
 442:	b8 2f       	mov	r27, r24
 444:	a6 cf       	rjmp	.-180    	; 0x392 <main+0x326>
		
		for(j=1;j<=2;j++)
		{
			for(i=1,k=2; i<=64; i=i*2,k=k*2)
			{
				PORTC |= i;
 446:	f5 b3       	in	r31, 0x15	; 21
 448:	f8 2b       	or	r31, r24
 44a:	f5 bb       	out	0x15, r31	; 21
 44c:	a9 e6       	ldi	r26, 0x69	; 105
 44e:	b8 e1       	ldi	r27, 0x18	; 24
 450:	11 97       	sbiw	r26, 0x01	; 1
 452:	f1 f7       	brne	.-4      	; 0x450 <main+0x3e4>
 454:	00 c0       	rjmp	.+0      	; 0x456 <main+0x3ea>
 456:	00 00       	nop
				_delay_ms(25);
				PORTC |= k;
 458:	f5 b3       	in	r31, 0x15	; 21
 45a:	f2 2b       	or	r31, r18
 45c:	f5 bb       	out	0x15, r31	; 21
 45e:	ab e7       	ldi	r26, 0x7B	; 123
 460:	b2 e9       	ldi	r27, 0x92	; 146
 462:	11 97       	sbiw	r26, 0x01	; 1
 464:	f1 f7       	brne	.-4      	; 0x462 <main+0x3f6>
 466:	00 c0       	rjmp	.+0      	; 0x468 <main+0x3fc>
 468:	00 00       	nop
//special_4 _ rise
		
		
		for(j=1;j<=2;j++)
		{
			for(i=1,k=2; i<=64; i=i*2,k=k*2)
 46a:	88 0f       	add	r24, r24
 46c:	99 1f       	adc	r25, r25
 46e:	22 0f       	add	r18, r18
 470:	33 1f       	adc	r19, r19
 472:	41 50       	subi	r20, 0x01	; 1
 474:	51 09       	sbc	r21, r1
 476:	41 15       	cp	r20, r1
 478:	51 05       	cpc	r21, r1
 47a:	29 f7       	brne	.-54     	; 0x446 <main+0x3da>
 47c:	ac 81       	ldd	r26, Y+4	; 0x04
 47e:	f2 2d       	mov	r31, r2
				
				_delay_ms(150);
				
			}
			
			PORTC=0;
 480:	15 ba       	out	0x15, r1	; 21
 482:	8f e4       	ldi	r24, 0x4F	; 79
 484:	93 ec       	ldi	r25, 0xC3	; 195
 486:	01 97       	sbiw	r24, 0x01	; 1
 488:	f1 f7       	brne	.-4      	; 0x486 <main+0x41a>
 48a:	00 c0       	rjmp	.+0      	; 0x48c <main+0x420>
 48c:	00 00       	nop
			_delay_ms(200);
			PORTC=255;
 48e:	95 ba       	out	0x15, r9	; 21
 490:	8f e4       	ldi	r24, 0x4F	; 79
 492:	93 ec       	ldi	r25, 0xC3	; 195
 494:	01 97       	sbiw	r24, 0x01	; 1
 496:	f1 f7       	brne	.-4      	; 0x494 <main+0x428>
 498:	00 c0       	rjmp	.+0      	; 0x49a <main+0x42e>
 49a:	00 00       	nop
			_delay_ms(200);
			PORTC=0;
 49c:	15 ba       	out	0x15, r1	; 21
 49e:	8f e4       	ldi	r24, 0x4F	; 79
 4a0:	93 ec       	ldi	r25, 0xC3	; 195
 4a2:	01 97       	sbiw	r24, 0x01	; 1
 4a4:	f1 f7       	brne	.-4      	; 0x4a2 <main+0x436>
 4a6:	00 c0       	rjmp	.+0      	; 0x4a8 <main+0x43c>
 4a8:	00 00       	nop
 4aa:	61 50       	subi	r22, 0x01	; 1
 4ac:	71 09       	sbc	r23, r1
		
	*/	
//special_4 _ rise
		
		
		for(j=1;j<=2;j++)
 4ae:	61 15       	cp	r22, r1
 4b0:	71 05       	cpc	r23, r1
 4b2:	21 f4       	brne	.+8      	; 0x4bc <main+0x450>
 4b4:	fa 2f       	mov	r31, r26
 4b6:	24 2c       	mov	r2, r4
 4b8:	39 80       	ldd	r3, Y+1	; 0x01
 4ba:	51 c0       	rjmp	.+162    	; 0x55e <main+0x4f2>
		PORTC=0b00000000;
		_delay_ms(25);
	}
}
		
		for(j=1; j<=5; j++)
 4bc:	47 e0       	ldi	r20, 0x07	; 7
 4be:	50 e0       	ldi	r21, 0x00	; 0
 4c0:	2f 2f       	mov	r18, r31
 4c2:	33 2d       	mov	r19, r3
 4c4:	86 2d       	mov	r24, r6
 4c6:	97 2d       	mov	r25, r7
 4c8:	ac 83       	std	Y+4, r26	; 0x04
 4ca:	2f 2e       	mov	r2, r31
 4cc:	bc cf       	rjmp	.-136    	; 0x446 <main+0x3da>

	for(j=1;j<=2;j++)
	{
		for(i=128,k=64; i>=1; i=i/2,k=k/2)
		{
			PORTC |= i;
 4ce:	85 b3       	in	r24, 0x15	; 21
 4d0:	84 2b       	or	r24, r20
 4d2:	85 bb       	out	0x15, r24	; 21
 4d4:	a9 e6       	ldi	r26, 0x69	; 105
 4d6:	b8 e1       	ldi	r27, 0x18	; 24
 4d8:	11 97       	sbiw	r26, 0x01	; 1
 4da:	f1 f7       	brne	.-4      	; 0x4d8 <main+0x46c>
 4dc:	00 c0       	rjmp	.+0      	; 0x4de <main+0x472>
 4de:	00 00       	nop
			_delay_ms(25);
			PORTC |= k;
 4e0:	85 b3       	in	r24, 0x15	; 21
 4e2:	85 2b       	or	r24, r21
 4e4:	85 bb       	out	0x15, r24	; 21
 4e6:	8b e7       	ldi	r24, 0x7B	; 123
 4e8:	92 e9       	ldi	r25, 0x92	; 146
 4ea:	01 97       	sbiw	r24, 0x01	; 1
 4ec:	f1 f7       	brne	.-4      	; 0x4ea <main+0x47e>
 4ee:	00 c0       	rjmp	.+0      	; 0x4f0 <main+0x484>
 4f0:	00 00       	nop
		}
		

	for(j=1;j<=2;j++)
	{
		for(i=128,k=64; i>=1; i=i/2,k=k/2)
 4f2:	84 2f       	mov	r24, r20
 4f4:	96 2f       	mov	r25, r22
 4f6:	99 23       	and	r25, r25
 4f8:	0c f4       	brge	.+2      	; 0x4fc <main+0x490>
 4fa:	01 96       	adiw	r24, 0x01	; 1
 4fc:	95 95       	asr	r25
 4fe:	87 95       	ror	r24
 500:	48 2f       	mov	r20, r24
 502:	69 2f       	mov	r22, r25
 504:	85 2f       	mov	r24, r21
 506:	97 2f       	mov	r25, r23
 508:	99 23       	and	r25, r25
 50a:	0c f4       	brge	.+2      	; 0x50e <main+0x4a2>
 50c:	01 96       	adiw	r24, 0x01	; 1
 50e:	95 95       	asr	r25
 510:	87 95       	ror	r24
 512:	58 2f       	mov	r21, r24
 514:	79 2f       	mov	r23, r25
 516:	21 50       	subi	r18, 0x01	; 1
 518:	31 09       	sbc	r19, r1
 51a:	21 15       	cp	r18, r1
 51c:	31 05       	cpc	r19, r1
 51e:	b9 f6       	brne	.-82     	; 0x4ce <main+0x462>
			
			_delay_ms(150);
			
		}
		
		PORTC=0;
 520:	e5 bb       	out	0x15, r30	; 21
 522:	af e4       	ldi	r26, 0x4F	; 79
 524:	b3 ec       	ldi	r27, 0xC3	; 195
 526:	11 97       	sbiw	r26, 0x01	; 1
 528:	f1 f7       	brne	.-4      	; 0x526 <main+0x4ba>
 52a:	00 c0       	rjmp	.+0      	; 0x52c <main+0x4c0>
 52c:	00 00       	nop
		_delay_ms(200);
		PORTC=255;
 52e:	95 ba       	out	0x15, r9	; 21
 530:	8f e4       	ldi	r24, 0x4F	; 79
 532:	93 ec       	ldi	r25, 0xC3	; 195
 534:	01 97       	sbiw	r24, 0x01	; 1
 536:	f1 f7       	brne	.-4      	; 0x534 <main+0x4c8>
 538:	00 c0       	rjmp	.+0      	; 0x53a <main+0x4ce>
 53a:	00 00       	nop
		_delay_ms(200);
		PORTC=0;
 53c:	e5 bb       	out	0x15, r30	; 21
 53e:	af e4       	ldi	r26, 0x4F	; 79
 540:	b3 ec       	ldi	r27, 0xC3	; 195
 542:	11 97       	sbiw	r26, 0x01	; 1
 544:	f1 f7       	brne	.-4      	; 0x542 <main+0x4d6>
 546:	00 c0       	rjmp	.+0      	; 0x548 <main+0x4dc>
 548:	00 00       	nop
 54a:	b1 e0       	ldi	r27, 0x01	; 1
 54c:	2b 1a       	sub	r2, r27
 54e:	31 08       	sbc	r3, r1
			PORTC=0;
			_delay_ms(200);
		}
		

	for(j=1;j<=2;j++)
 550:	21 14       	cp	r2, r1
 552:	31 04       	cpc	r3, r1
 554:	21 f4       	brne	.+8      	; 0x55e <main+0x4f2>
 556:	64 2d       	mov	r22, r4
 558:	79 81       	ldd	r23, Y+1	; 0x01
 55a:	bf 2f       	mov	r27, r31
 55c:	46 c0       	rjmp	.+140    	; 0x5ea <main+0x57e>
		
		
		
		
		
		for(j=1; j<=5; j++)
 55e:	2f 2d       	mov	r18, r15
 560:	30 2f       	mov	r19, r16
 562:	50 e4       	ldi	r21, 0x40	; 64
 564:	7f 2f       	mov	r23, r31
 566:	41 2f       	mov	r20, r17
 568:	6f 2f       	mov	r22, r31
 56a:	b1 cf       	rjmp	.-158    	; 0x4ce <main+0x462>

for(j=1;j<=2;j++)
{
	for(k=16 , i=8; i>=1; i=i/2,k=k*2)
	{
		PORTC |=i;
 56c:	85 b3       	in	r24, 0x15	; 21
 56e:	8f 2b       	or	r24, r31
 570:	85 bb       	out	0x15, r24	; 21
 572:	89 e6       	ldi	r24, 0x69	; 105
 574:	98 e1       	ldi	r25, 0x18	; 24
 576:	01 97       	sbiw	r24, 0x01	; 1
 578:	f1 f7       	brne	.-4      	; 0x576 <main+0x50a>
 57a:	00 c0       	rjmp	.+0      	; 0x57c <main+0x510>
 57c:	00 00       	nop
		_delay_ms(25);
		PORTC |=k;
 57e:	85 b3       	in	r24, 0x15	; 21
 580:	82 2b       	or	r24, r18
 582:	85 bb       	out	0x15, r24	; 21
 584:	8b e7       	ldi	r24, 0x7B	; 123
 586:	92 e9       	ldi	r25, 0x92	; 146
 588:	01 97       	sbiw	r24, 0x01	; 1
 58a:	f1 f7       	brne	.-4      	; 0x588 <main+0x51c>
 58c:	00 c0       	rjmp	.+0      	; 0x58e <main+0x522>
 58e:	00 00       	nop

//special_5 rise 2

for(j=1;j<=2;j++)
{
	for(k=16 , i=8; i>=1; i=i/2,k=k*2)
 590:	8f 2f       	mov	r24, r31
 592:	9a 2f       	mov	r25, r26
 594:	99 23       	and	r25, r25
 596:	0c f4       	brge	.+2      	; 0x59a <main+0x52e>
 598:	01 96       	adiw	r24, 0x01	; 1
 59a:	95 95       	asr	r25
 59c:	87 95       	ror	r24
 59e:	f8 2f       	mov	r31, r24
 5a0:	a9 2f       	mov	r26, r25
 5a2:	22 0f       	add	r18, r18
 5a4:	33 1f       	adc	r19, r19
 5a6:	41 50       	subi	r20, 0x01	; 1
 5a8:	51 09       	sbc	r21, r1
 5aa:	41 15       	cp	r20, r1
 5ac:	51 05       	cpc	r21, r1
 5ae:	f1 f6       	brne	.-68     	; 0x56c <main+0x500>
		_delay_ms(25);
		PORTC |=k;
		_delay_ms(150);
	}

	PORTC=0;
 5b0:	e5 bb       	out	0x15, r30	; 21
 5b2:	8f e4       	ldi	r24, 0x4F	; 79
 5b4:	93 ec       	ldi	r25, 0xC3	; 195
 5b6:	01 97       	sbiw	r24, 0x01	; 1
 5b8:	f1 f7       	brne	.-4      	; 0x5b6 <main+0x54a>
 5ba:	00 c0       	rjmp	.+0      	; 0x5bc <main+0x550>
 5bc:	00 00       	nop
	_delay_ms(200);
	PORTC=255;
 5be:	95 ba       	out	0x15, r9	; 21
 5c0:	8f e4       	ldi	r24, 0x4F	; 79
 5c2:	93 ec       	ldi	r25, 0xC3	; 195
 5c4:	01 97       	sbiw	r24, 0x01	; 1
 5c6:	f1 f7       	brne	.-4      	; 0x5c4 <main+0x558>
 5c8:	00 c0       	rjmp	.+0      	; 0x5ca <main+0x55e>
 5ca:	00 00       	nop
	_delay_ms(200);
	PORTC=0;
 5cc:	e5 bb       	out	0x15, r30	; 21
 5ce:	8f e4       	ldi	r24, 0x4F	; 79
 5d0:	93 ec       	ldi	r25, 0xC3	; 195
 5d2:	01 97       	sbiw	r24, 0x01	; 1
 5d4:	f1 f7       	brne	.-4      	; 0x5d2 <main+0x566>
 5d6:	00 c0       	rjmp	.+0      	; 0x5d8 <main+0x56c>
 5d8:	00 00       	nop
 5da:	61 50       	subi	r22, 0x01	; 1
 5dc:	71 09       	sbc	r23, r1
		_delay_ms(200);
	}

//special_5 rise 2

for(j=1;j<=2;j++)
 5de:	61 15       	cp	r22, r1
 5e0:	71 05       	cpc	r23, r1
 5e2:	19 f4       	brne	.+6      	; 0x5ea <main+0x57e>
 5e4:	64 2d       	mov	r22, r4
 5e6:	79 81       	ldd	r23, Y+1	; 0x01
 5e8:	44 c0       	rjmp	.+136    	; 0x672 <main+0x606>
		
	*/	
//special_4 _ rise
		
		
		for(j=1;j<=2;j++)
 5ea:	44 e0       	ldi	r20, 0x04	; 4
 5ec:	50 e0       	ldi	r21, 0x00	; 0
 5ee:	2e 2d       	mov	r18, r14
 5f0:	3d 2d       	mov	r19, r13
 5f2:	fc 2d       	mov	r31, r12
 5f4:	ab 2f       	mov	r26, r27
 5f6:	ba cf       	rjmp	.-140    	; 0x56c <main+0x500>
for(j=1;j<=2;j++)
{
		
	for(k=128 , i=1; i<=8; i=i*2,k=k/2)
	{
		PORTC |=i;
 5f8:	85 b3       	in	r24, 0x15	; 21
 5fa:	82 2b       	or	r24, r18
 5fc:	85 bb       	out	0x15, r24	; 21
 5fe:	89 e6       	ldi	r24, 0x69	; 105
 600:	98 e1       	ldi	r25, 0x18	; 24
 602:	01 97       	sbiw	r24, 0x01	; 1
 604:	f1 f7       	brne	.-4      	; 0x602 <main+0x596>
 606:	00 c0       	rjmp	.+0      	; 0x608 <main+0x59c>
 608:	00 00       	nop
		_delay_ms(25);
		PORTC |=k;
 60a:	85 b3       	in	r24, 0x15	; 21
 60c:	8f 2b       	or	r24, r31
 60e:	85 bb       	out	0x15, r24	; 21
 610:	8b e7       	ldi	r24, 0x7B	; 123
 612:	92 e9       	ldi	r25, 0x92	; 146
 614:	01 97       	sbiw	r24, 0x01	; 1
 616:	f1 f7       	brne	.-4      	; 0x614 <main+0x5a8>
 618:	00 c0       	rjmp	.+0      	; 0x61a <main+0x5ae>
 61a:	00 00       	nop


for(j=1;j<=2;j++)
{
		
	for(k=128 , i=1; i<=8; i=i*2,k=k/2)
 61c:	22 0f       	add	r18, r18
 61e:	33 1f       	adc	r19, r19
 620:	8f 2f       	mov	r24, r31
 622:	9a 2f       	mov	r25, r26
 624:	99 23       	and	r25, r25
 626:	0c f4       	brge	.+2      	; 0x62a <main+0x5be>
 628:	01 96       	adiw	r24, 0x01	; 1
 62a:	95 95       	asr	r25
 62c:	87 95       	ror	r24
 62e:	f8 2f       	mov	r31, r24
 630:	a9 2f       	mov	r26, r25
 632:	41 50       	subi	r20, 0x01	; 1
 634:	51 09       	sbc	r21, r1
 636:	41 15       	cp	r20, r1
 638:	51 05       	cpc	r21, r1
 63a:	f1 f6       	brne	.-68     	; 0x5f8 <main+0x58c>

		

	}
	
	PORTC=0;
 63c:	e5 bb       	out	0x15, r30	; 21
 63e:	8f e4       	ldi	r24, 0x4F	; 79
 640:	93 ec       	ldi	r25, 0xC3	; 195
 642:	01 97       	sbiw	r24, 0x01	; 1
 644:	f1 f7       	brne	.-4      	; 0x642 <main+0x5d6>
 646:	00 c0       	rjmp	.+0      	; 0x648 <main+0x5dc>
 648:	00 00       	nop
	_delay_ms(200);
	PORTC=255;
 64a:	95 ba       	out	0x15, r9	; 21
 64c:	8f e4       	ldi	r24, 0x4F	; 79
 64e:	93 ec       	ldi	r25, 0xC3	; 195
 650:	01 97       	sbiw	r24, 0x01	; 1
 652:	f1 f7       	brne	.-4      	; 0x650 <main+0x5e4>
 654:	00 c0       	rjmp	.+0      	; 0x656 <main+0x5ea>
 656:	00 00       	nop
	_delay_ms(200);
	PORTC=0;
 658:	e5 bb       	out	0x15, r30	; 21
 65a:	8f e4       	ldi	r24, 0x4F	; 79
 65c:	93 ec       	ldi	r25, 0xC3	; 195
 65e:	01 97       	sbiw	r24, 0x01	; 1
 660:	f1 f7       	brne	.-4      	; 0x65e <main+0x5f2>
 662:	00 c0       	rjmp	.+0      	; 0x664 <main+0x5f8>
 664:	00 00       	nop
 666:	61 50       	subi	r22, 0x01	; 1
 668:	71 09       	sbc	r23, r1

}



for(j=1;j<=2;j++)
 66a:	61 15       	cp	r22, r1
 66c:	71 05       	cpc	r23, r1
 66e:	09 f4       	brne	.+2      	; 0x672 <main+0x606>
 670:	4b cd       	rjmp	.-1386   	; 0x108 <main+0x9c>
			PORTC=0;
			_delay_ms(200);
		}
		

	for(j=1;j<=2;j++)
 672:	44 e0       	ldi	r20, 0x04	; 4
 674:	50 e0       	ldi	r21, 0x00	; 0
 676:	f1 2f       	mov	r31, r17
 678:	ab 2f       	mov	r26, r27
 67a:	26 2d       	mov	r18, r6
 67c:	37 2d       	mov	r19, r7
 67e:	bc cf       	rjmp	.-136    	; 0x5f8 <main+0x58c>

00000680 <_exit>:
 680:	f8 94       	cli

00000682 <__stop_program>:
 682:	ff cf       	rjmp	.-2      	; 0x682 <__stop_program>
